; Function Attrs: mustprogress ssp uwtable
define hidden void @_ZN6open3d13visualization32pybind_visualization_definitionsERN8pybind117module_E(ptr noundef nonnull readonly align 8 captures(none) dereferenceable(8) %0) local_unnamed_addr #5 personality ptr @__gxx_personality_v0 {
  %2 = alloca %"class.pybind11::module_", align 8
  %3 = alloca %"class.pybind11::detail::accessor", align 8
  call void @llvm.lifetime.start.p0(i64 8, ptr nonnull %2) #28
  call void @llvm.lifetime.start.p0(i64 32, ptr nonnull %3) #28
  tail call void @llvm.experimental.noalias.scope.decl(metadata !132)
  %.sroa.0.0.copyload.i = load ptr, ptr %0, align 8, !noalias !132
  %4 = getelementptr inbounds nuw i8, ptr %3, i64 8
  store ptr %.sroa.0.0.copyload.i, ptr %4, align 8, !alias.scope !132
  %5 = getelementptr inbounds nuw i8, ptr %3, i64 16
  store ptr @.str, ptr %5, align 8, !tbaa !127, !alias.scope !132
  %6 = getelementptr inbounds nuw i8, ptr %3, i64 24
  store ptr null, ptr %6, align 8, !tbaa !112, !alias.scope !132
  invoke void @_ZN8pybind117module_C2INS_6detail17accessor_policies8str_attrEEERKNS2_8accessorIT_EE(ptr noundef nonnull align 8 dereferenceable(8) %2, ptr noundef nonnull align 8 dereferenceable(32) %3)
          to label %7 unwind label %35

7:                                                ; preds = %1
  %8 = load ptr, ptr %6, align 8, !tbaa !112
  %.not.i.i.i.i = icmp eq ptr %8, null
  br i1 %.not.i.i.i.i, label %_ZN8pybind116detail8accessorINS0_17accessor_policies8str_attrEED2Ev.exit, label %9

9:                                                ; preds = %7
  %10 = load i64, ptr %8, align 8, !tbaa !111
  %11 = and i64 %10, 2147483648
  %.not2.i.i.i.i = icmp eq i64 %11, 0
  br i1 %.not2.i.i.i.i, label %12, label %_ZN8pybind116detail8accessorINS0_17accessor_policies8str_attrEED2Ev.exit

12:                                               ; preds = %9
  %13 = add nsw i64 %10, -1
  store i64 %13, ptr %8, align 8, !tbaa !111
  %14 = icmp eq i64 %13, 0
  br i1 %14, label %15, label %_ZN8pybind116detail8accessorINS0_17accessor_policies8str_attrEED2Ev.exit

15:                                               ; preds = %12
  invoke void @_Py_Dealloc(ptr noundef nonnull %8)
          to label %_ZN8pybind116detail8accessorINS0_17accessor_policies8str_attrEED2Ev.exit unwind label %16

16:                                               ; preds = %15
  %17 = landingpad { ptr, i32 }
          catch ptr null
  %18 = extractvalue { ptr, i32 } %17, 0
  call void @__clang_call_terminate(ptr %18) #29
  unreachable

_ZN8pybind116detail8accessorINS0_17accessor_policies8str_attrEED2Ev.exit: ; preds = %7, %9, %12, %15
  call void @llvm.lifetime.end.p0(i64 32, ptr nonnull %3) #28
  invoke void @_ZN6open3d13visualization31pybind_renderoption_definitionsERN8pybind117module_E(ptr noundef nonnull align 8 dereferenceable(8) %2)
          to label %19 unwind label %37

19:                                               ; preds = %_ZN8pybind116detail8accessorINS0_17accessor_policies8str_attrEED2Ev.exit
  invoke void @_ZN6open3d13visualization30pybind_viewcontrol_definitionsERN8pybind117module_E(ptr noundef nonnull align 8 dereferenceable(8) %2)
          to label %20 unwind label %37

20:                                               ; preds = %19
  invoke void @_ZN6open3d13visualization29pybind_visualizer_definitionsERN8pybind117module_E(ptr noundef nonnull align 8 dereferenceable(8) %2)
          to label %21 unwind label %37

21:                                               ; preds = %20
  invoke void @_ZN6open3d13visualization40pybind_visualization_utility_definitionsERN8pybind117module_E(ptr noundef nonnull align 8 dereferenceable(8) %2)
          to label %22 unwind label %37

22:                                               ; preds = %21
  invoke void @_ZN6open3d13visualization9rendering27pybind_material_definitionsERN8pybind117module_E(ptr noundef nonnull align 8 dereferenceable(8) %2)
          to label %23 unwind label %37

23:                                               ; preds = %22
  %24 = load ptr, ptr %2, align 8, !tbaa !112
  %.not.i.i.i = icmp eq ptr %24, null
  br i1 %.not.i.i.i, label %_ZN8pybind116objectD2Ev.exit, label %25

25:                                               ; preds = %23
  %26 = load i64, ptr %24, align 8, !tbaa !111
  %27 = and i64 %26, 2147483648
  %.not2.i.i.i = icmp eq i64 %27, 0
  br i1 %.not2.i.i.i, label %28, label %_ZN8pybind116objectD2Ev.exit

28:                                               ; preds = %25
  %29 = add nsw i64 %26, -1
  store i64 %29, ptr %24, align 8, !tbaa !111
  %30 = icmp eq i64 %29, 0
  br i1 %30, label %31, label %_ZN8pybind116objectD2Ev.exit

31:                                               ; preds = %28
  invoke void @_Py_Dealloc(ptr noundef nonnull %24)
          to label %_ZN8pybind116objectD2Ev.exit unwind label %32

32:                                               ; preds = %31
  %33 = landingpad { ptr, i32 }
          catch ptr null
  %34 = extractvalue { ptr, i32 } %33, 0
  call void @__clang_call_terminate(ptr %34) #29
  unreachable

_ZN8pybind116objectD2Ev.exit:                     ; preds = %23, %25, %28, %31
  call void @llvm.lifetime.end.p0(i64 8, ptr nonnull %2) #28
  ret void

35:                                               ; preds = %1
  %36 = landingpad { ptr, i32 }
          cleanup
  call void @_ZN8pybind116detail8accessorINS0_17accessor_policies8str_attrEED2Ev(ptr noundef nonnull align 8 dereferenceable(32) %3) #28
  call void @llvm.lifetime.end.p0(i64 32, ptr nonnull %3) #28
  br label %39

37:                                               ; preds = %22, %21, %20, %19, %_ZN8pybind116detail8accessorINS0_17accessor_policies8str_attrEED2Ev.exit
  %38 = landingpad { ptr, i32 }
          cleanup
  call void @_ZN8pybind116objectD2Ev(ptr noundef nonnull align 8 dereferenceable(8) %2) #28
  br label %39

39:                                               ; preds = %37, %35
  %.pn = phi { ptr, i32 } [ %38, %37 ], [ %36, %35 ]
  call void @llvm.lifetime.end.p0(i64 8, ptr nonnull %2) #28
  resume { ptr, i32 } %.pn
}